; Function Attrs: mustprogress uwtable
define internal noundef float @_ZNK5faiss12_GLOBAL__N_124AQInvertedListScannerLUTILb0ELNS_17AdditiveQuantizer13Search_type_tE3EE16distance_to_codeEPKh(ptr nocapture noundef nonnull readonly align 8 dereferenceable(148) %0, ptr noundef %1) unnamed_addr #2 align 2 {
  %3 = getelementptr inbounds i8, ptr %0, i64 144
  %4 = load float, ptr %3, align 8
  %5 = getelementptr inbounds i8, ptr %0, i64 48
  %6 = load ptr, ptr %5, align 8
  %7 = getelementptr inbounds i8, ptr %0, i64 96
  %8 = load ptr, ptr %7, align 8
  %9 = tail call noundef float @_ZNK5faiss17AdditiveQuantizer22compute_1_distance_LUTILb0ELNS0_13Search_type_tE3EEEfPKhPKf(ptr noundef nonnull align 8 dereferenceable(308) %6, ptr noundef %1, ptr noundef %8)
  %10 = fadd float %4, %9
  ret float %10
}